; Function Attrs: nounwind sspstrong uwtable
define dso_local void @gdb_exit(i32 noundef %0) local_unnamed_addr #2 {
  %2 = alloca %struct.timeval, align 8
  %3 = alloca [4 x i8], align 4
  call void @llvm.lifetime.start.p0(i64 4, ptr nonnull %3) #16
  %4 = load i8, ptr @gdbserver_state, align 8, !range !6, !noundef !7
  %5 = trunc nuw i8 %4 to i1
  br i1 %5, label %6, label %32

6:                                                ; preds = %1
  store i32 0, ptr %3, align 4, !annotation !8
  %7 = load i32, ptr @trace_events_enabled_count, align 4
  %.not.i.i = icmp eq i32 %7, 0
  br i1 %.not.i.i, label %trace_gdbstub_op_exiting.exit, label %8, !prof !5

8:                                                ; preds = %6
  %9 = load i16, ptr @_TRACE_GDBSTUB_OP_EXITING_DSTATE, align 2
  %.not2.i.i = icmp eq i16 %9, 0
  br i1 %.not2.i.i, label %trace_gdbstub_op_exiting.exit, label %10

10:                                               ; preds = %8
  %11 = load i32, ptr @qemu_loglevel, align 4
  %12 = and i32 %11, 32768
  %.not3.i.i = icmp eq i32 %12, 0
  br i1 %.not3.i.i, label %trace_gdbstub_op_exiting.exit, label %13

13:                                               ; preds = %10
  %14 = load i8, ptr @message_with_timestamp, align 1, !range !6, !noundef !7
  %15 = trunc nuw i8 %14 to i1
  br i1 %15, label %16, label %23

16:                                               ; preds = %13
  call void @llvm.lifetime.start.p0(i64 16, ptr nonnull %2) #16
  call void @llvm.memset.p0.i64(ptr noundef nonnull align 8 dereferenceable(16) %2, i8 0, i64 16, i1 false), !annotation !8
  %17 = call i32 @gettimeofday(ptr noundef nonnull %2, ptr noundef null) #16
  %18 = tail call i32 @qemu_get_thread_id() #16
  %19 = load i64, ptr %2, align 8
  %20 = getelementptr inbounds nuw i8, ptr %2, i64 8
  %21 = load i64, ptr %20, align 8
  %22 = and i32 %0, 255
  tail call void (ptr, ...) @qemu_log(ptr noundef nonnull @.str.48, i32 noundef %18, i64 noundef %19, i64 noundef %21, i32 noundef %22) #16
  call void @llvm.lifetime.end.p0(i64 16, ptr nonnull %2) #16
  br label %trace_gdbstub_op_exiting.exit

23:                                               ; preds = %13
  %24 = and i32 %0, 255
  tail call void (ptr, ...) @qemu_log(ptr noundef nonnull @.str.49, i32 noundef %24) #16
  br label %trace_gdbstub_op_exiting.exit

trace_gdbstub_op_exiting.exit:                    ; preds = %6, %8, %10, %16, %23
  %25 = load i8, ptr getelementptr inbounds nuw (i8, ptr @gdbserver_state, i64 4200), align 8, !range !6, !noundef !7
  %26 = trunc nuw i8 %25 to i1
  br i1 %26, label %27, label %31

27:                                               ; preds = %trace_gdbstub_op_exiting.exit
  %28 = and i32 %0, 255
  %29 = call i32 (ptr, i64, i32, i64, ptr, ...) @__snprintf_chk(ptr noundef nonnull %3, i64 noundef 4, i32 noundef 1, i64 noundef 4, ptr noundef nonnull @.str.11, i32 noundef %28) #16
  %30 = call i32 @gdb_put_packet(ptr noundef nonnull %3) #16
  store i8 0, ptr getelementptr inbounds nuw (i8, ptr @gdbserver_state, i64 4200), align 8
  br label %31

31:                                               ; preds = %27, %trace_gdbstub_op_exiting.exit
  call void @qemu_chr_fe_deinit(ptr noundef nonnull @gdbserver_system_state, i1 noundef zeroext true) #16
  br label %32

32:                                               ; preds = %1, %31
  call void @llvm.lifetime.end.p0(i64 4, ptr nonnull %3) #16
  ret void
}